; Function Attrs: uwtable
define hidden noundef zeroext i1 @_ZThn48_N11user_solver6solver10post_visitEP4exprbb(ptr noundef %this, ptr noundef %e, i1 zeroext %sign, i1 zeroext %root) unnamed_addr #8 align 2 {
entry:
  %__args.addr.i.i = alloca ptr, align 8
  %__args.addr2.i.i = alloca ptr, align 8
  %__args.addr4.i.i = alloca ptr, align 8
  %0 = getelementptr inbounds i8, ptr %this, i64 -48
  %call.i = tail call noundef ptr @_ZNK3euf13th_euf_solver10expr2enodeEP4expr(ptr noundef nonnull align 8 dereferenceable(108) %0, ptr noundef %e)
  %tobool.not.i = icmp eq ptr %call.i, null
  br i1 %tobool.not.i, label %if.then.i, label %if.end.i

if.then.i:                                        ; preds = %entry
  %call3.i = tail call noundef ptr @_ZN3euf13th_euf_solver8mk_enodeEP4exprb(ptr noundef nonnull align 8 dereferenceable(108) %0, ptr noundef %e, i1 noundef zeroext false)
  br label %if.end.i

if.end.i:                                         ; preds = %if.then.i, %entry
  tail call void @_ZN11user_solver6solver8add_exprEP4expr(ptr noundef nonnull align 8 dereferenceable(492) %0, ptr noundef %e)
  %_M_manager.i.i.i = getelementptr inbounds i8, ptr %this, i64 320
  %1 = load ptr, ptr %_M_manager.i.i.i, align 8
  %tobool.not.i.i.not.i = icmp eq ptr %1, null
  br i1 %tobool.not.i.i.not.i, label %_ZN11user_solver6solver10post_visitEP4exprbb.exit, label %_ZNKSt8functionIFvPvPN15user_propagator8callbackEP4exprEEclES0_S3_S5_.exit.i

_ZNKSt8functionIFvPvPN15user_propagator8callbackEP4exprEEclES0_S3_S5_.exit.i: ; preds = %if.end.i
  %m_created_eh.i = getelementptr inbounds i8, ptr %this, i64 304
  %m_user_context.i = getelementptr inbounds i8, ptr %this, i64 72
  %2 = load ptr, ptr %m_user_context.i, align 8
  %add.ptr.i = getelementptr inbounds i8, ptr %this, i64 64
  call void @llvm.lifetime.start.p0(i64 8, ptr nonnull %__args.addr.i.i)
  call void @llvm.lifetime.start.p0(i64 8, ptr nonnull %__args.addr2.i.i)
  call void @llvm.lifetime.start.p0(i64 8, ptr nonnull %__args.addr4.i.i)
  store ptr %2, ptr %__args.addr.i.i, align 8
  store ptr %add.ptr.i, ptr %__args.addr2.i.i, align 8
  store ptr %e, ptr %__args.addr4.i.i, align 8
  %_M_invoker.i.i = getelementptr inbounds i8, ptr %this, i64 328
  %3 = load ptr, ptr %_M_invoker.i.i, align 8
  call void %3(ptr noundef nonnull align 8 dereferenceable(16) %m_created_eh.i, ptr noundef nonnull align 8 dereferenceable(8) %__args.addr.i.i, ptr noundef nonnull align 8 dereferenceable(8) %__args.addr2.i.i, ptr noundef nonnull align 8 dereferenceable(8) %__args.addr4.i.i)
  call void @llvm.lifetime.end.p0(i64 8, ptr nonnull %__args.addr.i.i)
  call void @llvm.lifetime.end.p0(i64 8, ptr nonnull %__args.addr2.i.i)
  call void @llvm.lifetime.end.p0(i64 8, ptr nonnull %__args.addr4.i.i)
  br label %_ZN11user_solver6solver10post_visitEP4exprbb.exit

_ZN11user_solver6solver10post_visitEP4exprbb.exit: ; preds = %if.end.i, %_ZNKSt8functionIFvPvPN15user_propagator8callbackEP4exprEEclES0_S3_S5_.exit.i
  ret i1 true
}